ccopy_reg
_reconstructor
p1
(cargparse
Namespace
p2
c__builtin__
object
p3
NtRp4
(dp5
S'grad_clip'
p6
F10
sS'rnn_size'
p7
I256
sS'data_scale'
p8
I20
sS'learning_rate'
p9
F0.0050000000000000001
sS'num_layers'
p10
I2
sS'seq_length'
p11
I300
sS'decay_rate'
p12
F0.94999999999999996
sS'num_mixture'
p13
I20
sS'batch_size'
p14
I50
sS'num_epochs'
p15
I100
sS'model'
p16
S'lstm'
p17
sS'save_every'
p18
I500
sS'keep_prob'
p19
F0.80000000000000004
sb.